Certificate:
    Data:
        Version: 3 (0x2)
        Serial Number: 1 (0x1)
        Signature Algorithm: sha256WithRSAEncryption
        Issuer: CN=devcert
        Validity
            Not Before: May  6 03:49:00 2020 GMT
            Not After : Aug  9 03:49:00 2022 GMT
        Subject: CN=localhost
        Subject Public Key Info:
            Public Key Algorithm: rsaEncryption
                RSA Public-Key: (2048 bit)
                Modulus:
                    00:c5:45:f3:65:33:ed:95:f1:db:f0:4e:b9:a1:16:
                    47:c8:74:58:5f:38:47:17:ba:e3:0d:2d:1e:54:26:
                    ad:7d:43:93:a6:9f:87:d0:9d:a9:33:ef:ef:e6:3b:
                    30:c2:4d:5e:09:45:23:c8:89:9b:c0:d0:ad:ec:83:
                    26:4d:e7:88:07:f1:e0:9f:2a:d4:86:5f:31:8c:04:
                    54:39:29:80:81:6c:7a:96:9b:b0:e7:72:8f:74:00:
                    98:5d:a5:2c:bf:a5:f4:0a:e5:b1:a0:45:d7:50:45:
                    13:94:10:42:67:aa:37:69:ee:ba:fc:0e:42:38:d7:
                    c4:7e:08:70:75:ac:44:25:58:48:ed:12:a7:1f:24:
                    00:97:bf:b9:2d:5f:66:ac:e8:bf:af:fe:9b:bf:f4:
                    17:e7:f5:63:96:60:66:d0:27:89:94:d8:a1:0b:10:
                    21:80:24:04:54:fa:cd:fc:47:bd:37:82:47:1f:9a:
                    74:f1:f4:2a:29:df:c2:20:9f:1a:83:c3:3d:47:8f:
                    42:da:45:75:64:d7:00:e8:e1:4b:3c:86:b5:d9:3d:
                    d6:25:ef:3c:97:3d:c0:92:bb:62:64:34:b9:aa:47:
                    45:d7:dc:8c:a2:40:fe:c0:51:ff:22:62:fc:49:bb:
                    8c:c0:65:f1:41:a3:fd:78:22:d7:1e:f8:7b:57:64:
                    30:b1
                Exponent: 65537 (0x10001)
        X509v3 extensions:
            X509v3 Basic Constraints: critical
                CA:FALSE
            X509v3 Subject Key Identifier: 
                7F:EE:40:29:29:20:03:6C:F7:AE:A2:F2:08:FA:F5:AB:C8:B5:C9:8E
            X509v3 Authority Key Identifier: 
                keyid:1E:38:C2:AD:07:31:FB:B6:70:BE:E2:DD:79:8C:5F:D9:BA:F0:14:AE
                DirName:/CN=devcert
                serial:32:85:E8:D3:2C:04:0F:C6:9D:7B:83:80:DC:B9:46:A7:13:81:4C:99

            X509v3 Key Usage: critical
                Digital Signature, Key Encipherment
            X509v3 Extended Key Usage: 
                TLS Web Server Authentication
            X509v3 Subject Alternative Name: 
                DNS:localhost, DNS:*.localhost
    Signature Algorithm: sha256WithRSAEncryption
         2c:3f:24:0f:80:59:d1:b4:d5:bb:15:e0:9a:9a:47:6e:09:97:
         38:0b:03:c4:63:56:6a:39:34:21:15:63:e8:72:58:1f:c3:a3:
         4a:2a:51:05:65:15:e1:6d:e5:36:d8:c7:6f:8c:ec:5e:ef:6e:
         8d:8b:31:86:43:59:0d:87:5c:7a:c4:ca:ab:96:c3:c8:15:19:
         bf:7d:88:fd:0a:f4:83:b0:0f:be:0f:27:8c:64:3e:f9:2e:ea:
         00:a3:bc:3f:7e:81:b9:12:a0:37:ad:a2:9c:01:21:26:54:08:
         e1:32:14:12:65:13:bd:fe:89:b2:f8:41:37:91:a5:a9:50:56:
         88:71:bd:ce:85:9a:59:62:4a:f6:74:60:9a:6f:00:38:8f:d0:
         f0:16:a4:06:e8:db:53:6d:3b:8f:84:19:2f:1d:27:45:8c:c6:
         26:32:57:d1:0b:4e:90:b8:b9:dc:3a:21:aa:b0:1d:fc:ef:92:
         54:3f:d6:1d:f3:7b:f3:2e:b9:dc:e6:ca:92:57:13:3a:0a:d6:
         ef:ae:68:3d:d8:9f:3c:55:14:fe:49:a7:94:a8:f7:e2:4b:a7:
         26:d0:9f:ea:e9:57:9b:b4:1e:d9:bd:52:8e:2b:6c:e8:99:b7:
         04:47:de:14:c8:15:4d:25:41:e1:15:dd:bc:bd:25:b9:76:b2:
         5a:09:ca:45
-----BEGIN CERTIFICATE-----
MIIDaTCCAlGgAwIBAgIBATANBgkqhkiG9w0BAQsFADASMRAwDgYDVQQDDAdkZXZj
ZXJ0MB4XDTIwMDUwNjAzNDkwMFoXDTIyMDgwOTAzNDkwMFowFDESMBAGA1UEAwwJ
bG9jYWxob3N0MIIBIjANBgkqhkiG9w0BAQEFAAOCAQ8AMIIBCgKCAQEAxUXzZTPt
lfHb8E65oRZHyHRYXzhHF7rjDS0eVCatfUOTpp+H0J2pM+/v5jswwk1eCUUjyImb
wNCt7IMmTeeIB/HgnyrUhl8xjARUOSmAgWx6lpuw53KPdACYXaUsv6X0CuWxoEXX
UEUTlBBCZ6o3ae66/A5CONfEfghwdaxEJVhI7RKnHyQAl7+5LV9mrOi/r/6bv/QX
5/VjlmBm0CeJlNihCxAhgCQEVPrN/Ee9N4JHH5p08fQqKd/CIJ8ag8M9R49C2kV1
ZNcA6OFLPIa12T3WJe88lz3AkrtiZDS5qkdF19yMokD+wFH/ImL8SbuMwGXxQaP9
eCLXHvh7V2QwsQIDAQABo4HHMIHEMAwGA1UdEwEB/wQCMAAwHQYDVR0OBBYEFH/u
QCkpIANs966i8gj69avItcmOME0GA1UdIwRGMESAFB44wq0HMfu2cL7i3XmMX9m6
8BSuoRakFDASMRAwDgYDVQQDDAdkZXZjZXJ0ghQyhejTLAQPxp17g4DcuUanE4FM
mTAOBgNVHQ8BAf8EBAMCBaAwEwYDVR0lBAwwCgYIKwYBBQUHAwEwIQYDVR0RBBow
GIIJbG9jYWxob3N0ggsqLmxvY2FsaG9zdDANBgkqhkiG9w0BAQsFAAOCAQEALD8k
D4BZ0bTVuxXgmppHbgmXOAsDxGNWajk0IRVj6HJYH8OjSipRBWUV4W3lNtjHb4zs
Xu9ujYsxhkNZDYdcesTKq5bDyBUZv32I/Qr0g7APvg8njGQ++S7qAKO8P36BuRKg
N62inAEhJlQI4TIUEmUTvf6JsvhBN5GlqVBWiHG9zoWaWWJK9nRgmm8AOI/Q8Bak
BujbU207j4QZLx0nRYzGJjJX0QtOkLi53DohqrAd/O+SVD/WHfN78y653ObKklcT
OgrW765oPdifPFUU/kmnlKj34kunJtCf6ulXm7Qe2b1Sjits6Jm3BEfeFMgVTSVB
4RXdvL0luXayWgnKRQ==
-----END CERTIFICATE-----
